; Function Attrs: mustprogress uwtable
define noundef ptr @uprv_decNumberToIntegralValue_77(ptr noundef returned %0, ptr noundef %1, ptr noundef captures(none) %2) local_unnamed_addr #3 {
  %4 = alloca %struct.decContext, align 4
  call void @llvm.lifetime.start.p0(i64 28, ptr nonnull %4) #16
  call void @llvm.memcpy.p0.p0.i64(ptr noundef nonnull align 4 dereferenceable(28) %4, ptr noundef nonnull align 4 dereferenceable(28) %2, i64 28, i1 false), !tbaa.struct !61
  %5 = getelementptr inbounds nuw i8, ptr %4, i64 16
  store i32 0, ptr %5, align 4, !tbaa !91
  %6 = call ptr @uprv_decNumberToIntegralExact_77(ptr noundef %0, ptr noundef %1, ptr noundef nonnull %4)
  %7 = getelementptr inbounds nuw i8, ptr %4, i64 20
  %8 = load i32, ptr %7, align 4, !tbaa !92
  %9 = and i32 %8, 128
  %10 = getelementptr inbounds nuw i8, ptr %2, i64 20
  %11 = load i32, ptr %10, align 4, !tbaa !92
  %12 = or i32 %11, %9
  store i32 %12, ptr %10, align 4, !tbaa !92
  call void @llvm.lifetime.end.p0(i64 28, ptr nonnull %4) #16
  ret ptr %0
}